Certificate:
    Data:
        Version: 3 (0x2)
        Serial Number:
            1b:8b:d7:fd:43:88:bb:65:37:69:d0:a9:e5:b2:e8:66
    Signature Algorithm: sha256WithRSAEncryption
        Issuer: CN=Orca CA
        Validity
            Not Before: Feb 25 18:27:48 2022 GMT
            Not After : May 30 18:27:48 2024 GMT
        Subject: CN=client1.domain.tld
        Subject Public Key Info:
            Public Key Algorithm: rsaEncryption
                Public-Key: (2048 bit)
                Modulus:
                    00:dd:78:a9:54:98:87:d4:6c:56:e2:34:8c:cd:19:
                    0c:f9:fa:58:b9:60:48:39:13:6d:47:5b:27:ae:63:
                    ba:56:f7:1e:6c:77:d0:60:79:3f:ba:be:a6:0f:bf:
                    45:82:d6:75:4f:93:9c:ca:49:1a:7d:7f:17:65:d5:
                    98:f0:91:c7:3a:4a:e0:34:00:2d:a2:83:ce:d1:a0:
                    2a:65:10:ec:32:70:e5:7a:7b:38:f5:1a:1a:4f:23:
                    5f:aa:44:ec:18:72:bd:27:d5:d8:2e:d1:60:d5:63:
                    58:ee:a9:b4:17:f6:2d:b5:cd:97:0b:43:7a:a7:fd:
                    bd:85:72:1b:9f:e0:f1:68:1a:93:5f:6d:1f:d9:b7:
                    d0:c3:fb:e5:22:c1:1d:2c:dc:c3:cc:33:d6:10:9d:
                    95:0b:23:18:09:5e:fe:44:d4:46:71:9f:f9:79:5f:
                    7e:c3:a7:b5:74:2f:be:11:66:af:59:d7:e8:ee:db:
                    8f:3b:14:31:d0:ea:38:d5:dd:f2:00:47:46:91:3b:
                    de:b5:e2:c2:aa:e9:35:e5:3c:e7:72:03:81:b5:b9:
                    45:72:ac:84:54:93:b4:ca:87:31:51:ef:49:19:05:
                    7c:aa:4a:2f:41:d5:c6:9a:25:e4:0c:d2:dd:3c:cf:
                    61:22:e5:60:51:98:42:90:99:18:40:1b:2a:ee:e2:
                    d9:7f
                Exponent: 65537 (0x10001)
        X509v3 extensions:
            X509v3 Basic Constraints: 
                CA:FALSE
            X509v3 Subject Key Identifier: 
                88:C8:7E:D3:DA:92:FA:E7:FD:82:4B:8E:5E:C7:91:C5:3E:E0:DA:CE
            X509v3 Authority Key Identifier: 
                keyid:FC:A9:EF:73:80:E7:21:D2:BF:B4:D6:A1:7E:74:02:40:35:2C:96:CD
                DirName:/CN=Orca CA
                serial:A6:FB:FA:65:8C:42:8B:58

            X509v3 Extended Key Usage: 
                TLS Web Client Authentication
            X509v3 Key Usage: 
                Digital Signature
    Signature Algorithm: sha256WithRSAEncryption
         0f:46:7d:08:7f:22:46:94:36:81:27:e1:e0:e0:bb:01:07:52:
         0f:6f:43:df:65:24:79:68:8f:04:c0:e3:7a:87:9a:ab:87:f5:
         7f:98:c3:62:25:8e:74:74:06:e7:24:05:14:cd:2e:2d:ad:52:
         f4:06:d2:f0:24:3c:c8:26:62:7f:d0:df:af:de:69:5c:19:8f:
         07:41:9d:b0:47:9f:2c:c1:d1:42:8b:4f:01:da:d3:30:79:0f:
         6c:e8:3b:8f:45:13:c7:99:56:b5:90:96:3c:37:3c:ae:5a:cf:
         f5:c5:0b:be:66:39:6a:2c:1b:be:76:61:76:1e:f8:36:f8:e6:
         b1:7f:f7:5c:36:b3:67:04:33:a7:20:fb:d8:96:80:d8:7c:1b:
         97:86:a7:ed:fb:3b:b4:c8:5e:5f:cf:26:7c:31:06:6b:08:db:
         a5:ab:56:56:fa:34:a9:ee:af:5b:79:00:9b:7f:06:db:a7:46:
         a4:09:78:d4:95:a1:57:0b:ab:d5:03:4c:48:71:b4:38:1a:9e:
         4b:8d:9a:80:44:10:cd:f8:b2:ae:3f:76:5d:f2:1d:03:e4:22:
         67:5c:6a:0b:b1:af:b4:c5:69:21:8b:48:ed:ba:b0:99:00:49:
         9a:29:d4:9a:a8:50:83:ba:45:b3:be:ff:82:88:2d:51:83:2d:
         c4:f3:27:bc
-----BEGIN CERTIFICATE-----
MIIDTTCCAjWgAwIBAgIQG4vX/UOIu2U3adCp5bLoZjANBgkqhkiG9w0BAQsFADAS
MRAwDgYDVQQDDAdPcmNhIENBMB4XDTIyMDIyNTE4Mjc0OFoXDTI0MDUzMDE4Mjc0
OFowHTEbMBkGA1UEAwwSY2xpZW50MS5kb21haW4udGxkMIIBIjANBgkqhkiG9w0B
AQEFAAOCAQ8AMIIBCgKCAQEA3XipVJiH1GxW4jSMzRkM+fpYuWBIORNtR1snrmO6
VvcebHfQYHk/ur6mD79FgtZ1T5OcykkafX8XZdWY8JHHOkrgNAAtooPO0aAqZRDs
MnDlens49RoaTyNfqkTsGHK9J9XYLtFg1WNY7qm0F/Yttc2XC0N6p/29hXIbn+Dx
aBqTX20f2bfQw/vlIsEdLNzDzDPWEJ2VCyMYCV7+RNRGcZ/5eV9+w6e1dC++EWav
Wdfo7tuPOxQx0Oo41d3yAEdGkTveteLCquk15TzncgOBtblFcqyEVJO0yocxUe9J
GQV8qkovQdXGmiXkDNLdPM9hIuVgUZhCkJkYQBsq7uLZfwIDAQABo4GTMIGQMAkG
A1UdEwQCMAAwHQYDVR0OBBYEFIjIftPakvrn/YJLjl7HkcU+4NrOMEIGA1UdIwQ7
MDmAFPyp73OA5yHSv7TWoX50AkA1LJbNoRakFDASMRAwDgYDVQQDDAdPcmNhIENB
ggkApvv6ZYxCi1gwEwYDVR0lBAwwCgYIKwYBBQUHAwIwCwYDVR0PBAQDAgeAMA0G
CSqGSIb3DQEBCwUAA4IBAQAPRn0IfyJGlDaBJ+Hg4LsBB1IPb0PfZSR5aI8EwON6
h5qrh/V/mMNiJY50dAbnJAUUzS4trVL0BtLwJDzIJmJ/0N+v3mlcGY8HQZ2wR58s
wdFCi08B2tMweQ9s6DuPRRPHmVa1kJY8NzyuWs/1xQu+ZjlqLBu+dmF2Hvg2+Oax
f/dcNrNnBDOnIPvYloDYfBuXhqft+zu0yF5fzyZ8MQZrCNulq1ZW+jSp7q9beQCb
fwbbp0akCXjUlaFXC6vVA0xIcbQ4Gp5LjZqARBDN+LKuP3Zd8h0D5CJnXGoLsa+0
xWkhi0jturCZAEmaKdSaqFCDukWzvv+CiC1Rgy3E8ye8
-----END CERTIFICATE-----
